target datalayout = "e-m:e-p270:32:32-p271:32:32-p272:64:64-i64:64-i128:128-f80:128-n8:16:32:64-S128"
target triple = "x86_64-pc-linux-gnu"

%struct.IVIHuffDesc = type { i32, [16 x i8] }

; Function Attrs: nounwind uwtable
define internal i32 @ivi_create_huff_from_desc(ptr noundef %0, ptr noundef %1, i32 noundef %2) #2 {
  %4 = alloca i32, align 4
  %5 = alloca ptr, align 8
  %6 = alloca ptr, align 8
  %7 = alloca i32, align 4
  %8 = alloca i32, align 4
  %9 = alloca i32, align 4
  %10 = alloca i32, align 4
  %11 = alloca i32, align 4
  %12 = alloca i32, align 4
  %13 = alloca i32, align 4
  %14 = alloca [256 x i16], align 16
  %15 = alloca [256 x i8], align 16
  %16 = alloca i32, align 4
  store ptr %0, ptr %5, align 8, !tbaa !36
  store ptr %1, ptr %6, align 8, !tbaa !38
  store i32 %2, ptr %7, align 4, !tbaa !4
  call void @llvm.lifetime.start.p0(i64 4, ptr %8) #12
  call void @llvm.lifetime.start.p0(i64 4, ptr %9) #12
  call void @llvm.lifetime.start.p0(i64 4, ptr %10) #12
  call void @llvm.lifetime.start.p0(i64 4, ptr %11) #12
  call void @llvm.lifetime.start.p0(i64 4, ptr %12) #12
  call void @llvm.lifetime.start.p0(i64 4, ptr %13) #12
  call void @llvm.lifetime.start.p0(i64 512, ptr %14) #12
  call void @llvm.lifetime.start.p0(i64 256, ptr %15) #12
  store i32 0, ptr %8, align 4, !tbaa !4
  store i32 0, ptr %9, align 4, !tbaa !4
  br label %17

17:                                               ; preds = %107, %3
  %18 = load i32, ptr %9, align 4, !tbaa !4
  %19 = load ptr, ptr %5, align 8, !tbaa !36
  %20 = getelementptr inbounds nuw %struct.IVIHuffDesc, ptr %19, i32 0, i32 0
  %21 = load i32, ptr %20, align 4, !tbaa !26
  %22 = icmp slt i32 %18, %21
  br i1 %22, label %23, label %110

23:                                               ; preds = %17
  %24 = load ptr, ptr %5, align 8, !tbaa !36
  %25 = getelementptr inbounds nuw %struct.IVIHuffDesc, ptr %24, i32 0, i32 1
  %26 = load i32, ptr %9, align 4, !tbaa !4
  %27 = sext i32 %26 to i64
  %28 = getelementptr inbounds [16 x i8], ptr %25, i64 0, i64 %27
  %29 = load i8, ptr %28, align 1, !tbaa !27
  %30 = zext i8 %29 to i32
  %31 = shl i32 1, %30
  store i32 %31, ptr %11, align 4, !tbaa !4
  %32 = load i32, ptr %9, align 4, !tbaa !4
  %33 = load ptr, ptr %5, align 8, !tbaa !36
  %34 = getelementptr inbounds nuw %struct.IVIHuffDesc, ptr %33, i32 0, i32 0
  %35 = load i32, ptr %34, align 4, !tbaa !26
  %36 = sub nsw i32 %35, 1
  %37 = icmp ne i32 %32, %36
  %38 = zext i1 %37 to i32
  store i32 %38, ptr %13, align 4, !tbaa !4
  %39 = load i32, ptr %9, align 4, !tbaa !4
  %40 = shl i32 1, %39
  %41 = sub nsw i32 %40, 1
  %42 = load ptr, ptr %5, align 8, !tbaa !36
  %43 = getelementptr inbounds nuw %struct.IVIHuffDesc, ptr %42, i32 0, i32 1
  %44 = load i32, ptr %9, align 4, !tbaa !4
  %45 = sext i32 %44 to i64
  %46 = getelementptr inbounds [16 x i8], ptr %43, i64 0, i64 %45
  %47 = load i8, ptr %46, align 1, !tbaa !27
  %48 = zext i8 %47 to i32
  %49 = load i32, ptr %13, align 4, !tbaa !4
  %50 = add nsw i32 %48, %49
  %51 = shl i32 %41, %50
  store i32 %51, ptr %12, align 4, !tbaa !4
  store i32 0, ptr %10, align 4, !tbaa !4
  br label %52

52:                                               ; preds = %103, %23
  %53 = load i32, ptr %10, align 4, !tbaa !4
  %54 = load i32, ptr %11, align 4, !tbaa !4
  %55 = icmp slt i32 %53, %54
  br i1 %55, label %56, label %106

56:                                               ; preds = %52
  %57 = load i32, ptr %8, align 4, !tbaa !4
  %58 = icmp sge i32 %57, 256
  br i1 %58, label %59, label %60

59:                                               ; preds = %56
  br label %106

60:                                               ; preds = %56
  %61 = load i32, ptr %9, align 4, !tbaa !4
  %62 = load ptr, ptr %5, align 8, !tbaa !36
  %63 = getelementptr inbounds nuw %struct.IVIHuffDesc, ptr %62, i32 0, i32 1
  %64 = load i32, ptr %9, align 4, !tbaa !4
  %65 = sext i32 %64 to i64
  %66 = getelementptr inbounds [16 x i8], ptr %63, i64 0, i64 %65
  %67 = load i8, ptr %66, align 1, !tbaa !27
  %68 = zext i8 %67 to i32
  %69 = add nsw i32 %61, %68
  %70 = load i32, ptr %13, align 4, !tbaa !4
  %71 = add nsw i32 %69, %70
  %72 = trunc i32 %71 to i8
  %73 = load i32, ptr %8, align 4, !tbaa !4
  %74 = sext i32 %73 to i64
  %75 = getelementptr inbounds [256 x i8], ptr %15, i64 0, i64 %74
  store i8 %72, ptr %75, align 1, !tbaa !27
  %76 = load i32, ptr %8, align 4, !tbaa !4
  %77 = sext i32 %76 to i64
  %78 = getelementptr inbounds [256 x i8], ptr %15, i64 0, i64 %77
  %79 = load i8, ptr %78, align 1, !tbaa !27
  %80 = zext i8 %79 to i32
  %81 = icmp sgt i32 %80, 13
  br i1 %81, label %82, label %83

82:                                               ; preds = %60
  store i32 -1094995529, ptr %4, align 4
  store i32 1, ptr %16, align 4
  br label %120

83:                                               ; preds = %60
  %84 = load i32, ptr %12, align 4, !tbaa !4
  %85 = load i32, ptr %10, align 4, !tbaa !4
  %86 = or i32 %84, %85
  %87 = trunc i32 %86 to i16
  %88 = load i32, ptr %8, align 4, !tbaa !4
  %89 = sext i32 %88 to i64
  %90 = getelementptr inbounds [256 x i16], ptr %14, i64 0, i64 %89
  store i16 %87, ptr %90, align 2, !tbaa !39
  %91 = load i32, ptr %8, align 4, !tbaa !4
  %92 = sext i32 %91 to i64
  %93 = getelementptr inbounds [256 x i8], ptr %15, i64 0, i64 %92
  %94 = load i8, ptr %93, align 1, !tbaa !27
  %95 = icmp ne i8 %94, 0
  br i1 %95, label %100, label %96

96:                                               ; preds = %83
  %97 = load i32, ptr %8, align 4, !tbaa !4
  %98 = sext i32 %97 to i64
  %99 = getelementptr inbounds [256 x i8], ptr %15, i64 0, i64 %98
  store i8 1, ptr %99, align 1, !tbaa !27
  br label %100

100:                                              ; preds = %96, %83
  %101 = load i32, ptr %8, align 4, !tbaa !4
  %102 = add nsw i32 %101, 1
  store i32 %102, ptr %8, align 4, !tbaa !4
  br label %103

103:                                              ; preds = %100
  %104 = load i32, ptr %10, align 4, !tbaa !4
  %105 = add nsw i32 %104, 1
  store i32 %105, ptr %10, align 4, !tbaa !4
  br label %52, !llvm.loop !41

106:                                              ; preds = %59, %52
  br label %107

107:                                              ; preds = %106
  %108 = load i32, ptr %9, align 4, !tbaa !4
  %109 = add nsw i32 %108, 1
  store i32 %109, ptr %9, align 4, !tbaa !4
  br label %17, !llvm.loop !42

110:                                              ; preds = %17
  %111 = load ptr, ptr %6, align 8, !tbaa !38
  %112 = load i32, ptr %8, align 4, !tbaa !4
  %113 = getelementptr inbounds [256 x i8], ptr %15, i64 0, i64 0
  %114 = getelementptr inbounds [256 x i16], ptr %14, i64 0, i64 0
  %115 = load i32, ptr %7, align 4, !tbaa !4
  %116 = icmp ne i32 %115, 0
  %117 = select i1 %116, i32 1, i32 0
  %118 = or i32 %117, 8
  %119 = call i32 @ff_vlc_init_sparse(ptr noundef %111, i32 noundef 13, i32 noundef %112, ptr noundef %113, i32 noundef 1, i32 noundef 1, ptr noundef %114, i32 noundef 2, i32 noundef 2, ptr noundef null, i32 noundef 0, i32 noundef 0, i32 noundef %118)
  store i32 %119, ptr %4, align 4
  store i32 1, ptr %16, align 4
  br label %120

120:                                              ; preds = %110, %82
  call void @llvm.lifetime.end.p0(i64 256, ptr %15) #12
  call void @llvm.lifetime.end.p0(i64 512, ptr %14) #12
  call void @llvm.lifetime.end.p0(i64 4, ptr %13) #12
  call void @llvm.lifetime.end.p0(i64 4, ptr %12) #12
  call void @llvm.lifetime.end.p0(i64 4, ptr %11) #12
  call void @llvm.lifetime.end.p0(i64 4, ptr %10) #12
  call void @llvm.lifetime.end.p0(i64 4, ptr %9) #12
  call void @llvm.lifetime.end.p0(i64 4, ptr %8) #12
  %121 = load i32, ptr %4, align 4
  ret i32 %121
}