; Function Attrs: nounwind uwtable
define internal fastcc i32 @ivi_create_huff_from_desc(ptr noundef readonly captures(none) %0, ptr noundef %1, i32 noundef range(i32 0, 2) %2) unnamed_addr #2 {
  %4 = alloca [256 x i16], align 16
  %5 = alloca [256 x i8], align 16
  call void @llvm.lifetime.start.p0(i64 512, ptr nonnull %4) #10
  call void @llvm.lifetime.start.p0(i64 256, ptr nonnull %5) #10
  %6 = load i32, ptr %0, align 4, !tbaa !26
  %7 = icmp sgt i32 %6, 0
  br i1 %7, label %.lr.ph47, label %._crit_edge48

.lr.ph47:                                         ; preds = %3
  %8 = getelementptr inbounds nuw i8, ptr %0, i64 4
  %9 = add nsw i32 %6, -1
  %10 = zext nneg i32 %9 to i64
  %wide.trip.count = zext nneg i32 %6 to i64
  br label %11

11:                                               ; preds = %.lr.ph47, %._crit_edge
  %indvars.iv60 = phi i64 [ 0, %.lr.ph47 ], [ %indvars.iv.next61, %._crit_edge ]
  %.03145 = phi i32 [ 0, %.lr.ph47 ], [ %.1.lcssa, %._crit_edge ]
  %12 = getelementptr inbounds nuw [16 x i8], ptr %8, i64 0, i64 %indvars.iv60
  %13 = load i8, ptr %12, align 1, !tbaa !23
  %14 = zext i8 %13 to i32
  %15 = shl nuw i32 1, %14
  %16 = icmp ne i64 %indvars.iv60, %10
  %17 = zext i1 %16 to i32
  %18 = trunc nuw nsw i64 %indvars.iv60 to i32
  %notmask = shl nsw i32 -1, %18
  %19 = xor i32 %notmask, -1
  %20 = add nuw nsw i32 %14, %17
  %21 = shl i32 %19, %20
  %22 = icmp eq i8 %13, 31
  %23 = icmp sgt i32 %.03145, 255
  %or.cond37 = select i1 %22, i1 true, i1 %23
  br i1 %or.cond37, label %._crit_edge, label %.lr.ph

.lr.ph:                                           ; preds = %11
  %24 = add nuw nsw i32 %20, %18
  %25 = trunc i32 %24 to i8
  %26 = and i32 %24, 254
  %27 = icmp samesign ugt i32 %26, 13
  br i1 %27, label %.lr.ph.split.us, label %.lr.ph.split

.lr.ph.split:                                     ; preds = %.lr.ph
  %.not = icmp eq i8 %25, 0
  %28 = sext i32 %.03145 to i64
  br i1 %.not, label %.lr.ph.split.split.us, label %.lr.ph.split.split.preheader

.lr.ph.split.split.preheader:                     ; preds = %.lr.ph.split
  %scevgep = getelementptr i8, ptr %5, i64 %28
  %smax = tail call i32 @llvm.smax.i32(i32 %15, i32 1)
  %29 = add nsw i32 %smax, -1
  %30 = sub i32 255, %.03145
  %31 = tail call i32 @llvm.umin.i32(i32 %29, i32 %30)
  %umin = zext nneg i32 %31 to i64
  %32 = add nuw nsw i64 %umin, 1
  call void @llvm.memset.p0.i64(ptr noundef nonnull align 1 dereferenceable(1) %scevgep, i8 %25, i64 %32, i1 false), !tbaa !23
  br label %.lr.ph.split.split

.lr.ph.split.split.us:                            ; preds = %.lr.ph.split, %.lr.ph.split.split.us
  %indvars.iv57 = phi i64 [ %indvars.iv.next58, %.lr.ph.split.split.us ], [ %28, %.lr.ph.split ]
  %.03338.us43 = phi i32 [ %37, %.lr.ph.split.split.us ], [ 0, %.lr.ph.split ]
  %33 = getelementptr inbounds [256 x i8], ptr %5, i64 0, i64 %indvars.iv57
  %34 = or i32 %.03338.us43, %21
  %35 = trunc i32 %34 to i16
  %36 = getelementptr inbounds [256 x i16], ptr %4, i64 0, i64 %indvars.iv57
  store i16 %35, ptr %36, align 2, !tbaa !29
  store i8 1, ptr %33, align 1, !tbaa !23
  %indvars.iv.next58 = add nsw i64 %indvars.iv57, 1
  %37 = add nuw nsw i32 %.03338.us43, 1
  %38 = icmp sge i32 %37, %15
  %39 = icmp sgt i64 %indvars.iv57, 254
  %or.cond.us = or i1 %38, %39
  br i1 %or.cond.us, label %._crit_edge.loopexit, label %.lr.ph.split.split.us, !llvm.loop !31

.lr.ph.split.split:                               ; preds = %.lr.ph.split.split.preheader, %.lr.ph.split.split
  %indvars.iv = phi i64 [ %28, %.lr.ph.split.split.preheader ], [ %indvars.iv.next, %.lr.ph.split.split ]
  %.03338 = phi i32 [ 0, %.lr.ph.split.split.preheader ], [ %43, %.lr.ph.split.split ]
  %40 = or i32 %.03338, %21
  %41 = trunc i32 %40 to i16
  %42 = getelementptr inbounds [256 x i16], ptr %4, i64 0, i64 %indvars.iv
  store i16 %41, ptr %42, align 2, !tbaa !29
  %indvars.iv.next = add nsw i64 %indvars.iv, 1
  %43 = add nuw nsw i32 %.03338, 1
  %44 = icmp sge i32 %43, %15
  %45 = icmp sgt i64 %indvars.iv, 254
  %or.cond = or i1 %44, %45
  br i1 %or.cond, label %._crit_edge.loopexit50, label %.lr.ph.split.split, !llvm.loop !31

._crit_edge.loopexit:                             ; preds = %.lr.ph.split.split.us
  %46 = trunc nsw i64 %indvars.iv.next58 to i32
  br label %._crit_edge

._crit_edge.loopexit50:                           ; preds = %.lr.ph.split.split
  %47 = trunc nsw i64 %indvars.iv.next to i32
  br label %._crit_edge

._crit_edge:                                      ; preds = %._crit_edge.loopexit50, %._crit_edge.loopexit, %11
  %.1.lcssa = phi i32 [ %.03145, %11 ], [ %46, %._crit_edge.loopexit ], [ %47, %._crit_edge.loopexit50 ]
  %indvars.iv.next61 = add nuw nsw i64 %indvars.iv60, 1
  %exitcond.not = icmp eq i64 %indvars.iv.next61, %wide.trip.count
  br i1 %exitcond.not, label %._crit_edge48, label %11, !llvm.loop !32

._crit_edge48:                                    ; preds = %._crit_edge, %3
  %.031.lcssa = phi i32 [ 0, %3 ], [ %.1.lcssa, %._crit_edge ]
  %48 = or disjoint i32 %2, 8
  %49 = call i32 @ff_vlc_init_sparse(ptr noundef %1, i32 noundef 13, i32 noundef %.031.lcssa, ptr noundef nonnull %5, i32 noundef 1, i32 noundef 1, ptr noundef nonnull %4, i32 noundef 2, i32 noundef 2, ptr noundef null, i32 noundef 0, i32 noundef 0, i32 noundef %48) #10
  br label %.lr.ph.split.us

.lr.ph.split.us:                                  ; preds = %.lr.ph, %._crit_edge48
  %.0 = phi i32 [ %49, %._crit_edge48 ], [ -1094995529, %.lr.ph ]
  call void @llvm.lifetime.end.p0(i64 256, ptr nonnull %5) #10
  call void @llvm.lifetime.end.p0(i64 512, ptr nonnull %4) #10
  ret i32 %.0
}